target datalayout = "e-m:e-p270:32:32-p271:32:32-p272:64:64-i64:64-i128:128-f80:128-n8:16:32:64-S128"
target triple = "x86_64-pc-linux-gnu"

%struct.jpeg_decompress_struct = type { ptr, ptr, ptr, ptr, i32, i32, ptr, i32, i32, i32, i32, i32, i32, i32, double, i32, i32, i32, i32, i32, i32, i32, i32, i32, i32, i32, i32, i32, i32, i32, i32, i32, i32, ptr, i32, i32, i32, i32, i32, ptr, [4 x ptr], [4 x ptr], [4 x ptr], i32, ptr, i32, i32, [16 x i8], [16 x i8], [16 x i8], i32, i32, i8, i8, i8, i16, i16, i32, i8, i32, ptr, i32, i32, i32, i32, ptr, i32, [4 x ptr], i32, i32, i32, [10 x i32], i32, i32, i32, i32, i32, ptr, ptr, ptr, ptr, ptr, ptr, ptr, ptr, ptr, ptr, ptr }
%struct.jpeg_memory_mgr = type { ptr, ptr, ptr, ptr, ptr, ptr, ptr, ptr, ptr, ptr, ptr, i64, i64 }
%struct.my_diff_controller = type { %struct.jpeg_d_coef_controller, i32, i32, i32, i32, [10 x ptr], [10 x ptr], [10 x ptr] }
%struct.jpeg_d_coef_controller = type { ptr, ptr, ptr, ptr, ptr, ptr, i32, i32, i32, ptr }
%struct.jpeg_component_info = type { i32, i32, i32, i32, i32, i32, i32, i32, i32, i32, i32, i32, i32, i32, i32, i32, i32, i32, i32, ptr, ptr }
%struct.jpeg_input_controller = type { ptr, ptr, ptr, ptr, i32, i32 }

; Function Attrs: nounwind uwtable
define internal i32 @output_data(ptr noundef %0, ptr noundef %1) #0 {
  %3 = alloca i32, align 4
  %4 = alloca ptr, align 8
  %5 = alloca ptr, align 8
  %6 = alloca ptr, align 8
  %7 = alloca i32, align 4
  %8 = alloca i32, align 4
  %9 = alloca i32, align 4
  %10 = alloca i32, align 4
  %11 = alloca ptr, align 8
  %12 = alloca ptr, align 8
  store ptr %0, ptr %4, align 8
  store ptr %1, ptr %5, align 8
  %13 = load ptr, ptr %4, align 8
  %14 = getelementptr inbounds %struct.jpeg_decompress_struct, ptr %13, i32 0, i32 79
  %15 = load ptr, ptr %14, align 8
  store ptr %15, ptr %6, align 8
  %16 = load ptr, ptr %4, align 8
  %17 = getelementptr inbounds %struct.jpeg_decompress_struct, ptr %16, i32 0, i32 64
  %18 = load i32, ptr %17, align 4
  %19 = sub i32 %18, 1
  store i32 %19, ptr %7, align 4
  br label %20

20:                                               ; preds = %58, %2
  %21 = load ptr, ptr %4, align 8
  %22 = getelementptr inbounds %struct.jpeg_decompress_struct, ptr %21, i32 0, i32 35
  %23 = load i32, ptr %22, align 4
  %24 = load ptr, ptr %4, align 8
  %25 = getelementptr inbounds %struct.jpeg_decompress_struct, ptr %24, i32 0, i32 37
  %26 = load i32, ptr %25, align 4
  %27 = icmp slt i32 %23, %26
  br i1 %27, label %46, label %28

28:                                               ; preds = %20
  %29 = load ptr, ptr %4, align 8
  %30 = getelementptr inbounds %struct.jpeg_decompress_struct, ptr %29, i32 0, i32 35
  %31 = load i32, ptr %30, align 4
  %32 = load ptr, ptr %4, align 8
  %33 = getelementptr inbounds %struct.jpeg_decompress_struct, ptr %32, i32 0, i32 37
  %34 = load i32, ptr %33, align 4
  %35 = icmp eq i32 %31, %34
  br i1 %35, label %36, label %44

36:                                               ; preds = %28
  %37 = load ptr, ptr %4, align 8
  %38 = getelementptr inbounds %struct.jpeg_decompress_struct, ptr %37, i32 0, i32 36
  %39 = load i32, ptr %38, align 8
  %40 = load ptr, ptr %4, align 8
  %41 = getelementptr inbounds %struct.jpeg_decompress_struct, ptr %40, i32 0, i32 38
  %42 = load i32, ptr %41, align 8
  %43 = icmp ule i32 %39, %42
  br label %44

44:                                               ; preds = %36, %28
  %45 = phi i1 [ false, %28 ], [ %43, %36 ]
  br label %46

46:                                               ; preds = %44, %20
  %47 = phi i1 [ true, %20 ], [ %45, %44 ]
  br i1 %47, label %48, label %59

48:                                               ; preds = %46
  %49 = load ptr, ptr %4, align 8
  %50 = getelementptr inbounds %struct.jpeg_decompress_struct, ptr %49, i32 0, i32 81
  %51 = load ptr, ptr %50, align 8
  %52 = getelementptr inbounds %struct.jpeg_input_controller, ptr %51, i32 0, i32 0
  %53 = load ptr, ptr %52, align 8
  %54 = load ptr, ptr %4, align 8
  %55 = call i32 %53(ptr noundef %54)
  %56 = icmp eq i32 %55, 0
  br i1 %56, label %57, label %58

57:                                               ; preds = %48
  store i32 0, ptr %3, align 4
  br label %162

58:                                               ; preds = %48
  br label %20, !llvm.loop !8

59:                                               ; preds = %46
  store i32 0, ptr %8, align 4
  %60 = load ptr, ptr %4, align 8
  %61 = getelementptr inbounds %struct.jpeg_decompress_struct, ptr %60, i32 0, i32 44
  %62 = load ptr, ptr %61, align 8
  store ptr %62, ptr %12, align 8
  br label %63

63:                                               ; preds = %146, %59
  %64 = load i32, ptr %8, align 4
  %65 = load ptr, ptr %4, align 8
  %66 = getelementptr inbounds %struct.jpeg_decompress_struct, ptr %65, i32 0, i32 9
  %67 = load i32, ptr %66, align 8
  %68 = icmp slt i32 %64, %67
  br i1 %68, label %69, label %151

69:                                               ; preds = %63
  %70 = load ptr, ptr %4, align 8
  %71 = getelementptr inbounds %struct.jpeg_decompress_struct, ptr %70, i32 0, i32 1
  %72 = load ptr, ptr %71, align 8
  %73 = getelementptr inbounds %struct.jpeg_memory_mgr, ptr %72, i32 0, i32 7
  %74 = load ptr, ptr %73, align 8
  %75 = load ptr, ptr %4, align 8
  %76 = load ptr, ptr %6, align 8
  %77 = getelementptr inbounds %struct.my_diff_controller, ptr %76, i32 0, i32 7
  %78 = load i32, ptr %8, align 4
  %79 = sext i32 %78 to i64
  %80 = getelementptr inbounds [10 x ptr], ptr %77, i64 0, i64 %79
  %81 = load ptr, ptr %80, align 8
  %82 = load ptr, ptr %4, align 8
  %83 = getelementptr inbounds %struct.jpeg_decompress_struct, ptr %82, i32 0, i32 38
  %84 = load i32, ptr %83, align 8
  %85 = load ptr, ptr %12, align 8
  %86 = getelementptr inbounds %struct.jpeg_component_info, ptr %85, i32 0, i32 3
  %87 = load i32, ptr %86, align 4
  %88 = mul i32 %84, %87
  %89 = load ptr, ptr %12, align 8
  %90 = getelementptr inbounds %struct.jpeg_component_info, ptr %89, i32 0, i32 3
  %91 = load i32, ptr %90, align 4
  %92 = call ptr %74(ptr noundef %75, ptr noundef %81, i32 noundef %88, i32 noundef %91, i32 noundef 0)
  store ptr %92, ptr %11, align 8
  %93 = load ptr, ptr %4, align 8
  %94 = getelementptr inbounds %struct.jpeg_decompress_struct, ptr %93, i32 0, i32 38
  %95 = load i32, ptr %94, align 8
  %96 = load i32, ptr %7, align 4
  %97 = icmp ult i32 %95, %96
  br i1 %97, label %98, label %102

98:                                               ; preds = %69
  %99 = load ptr, ptr %12, align 8
  %100 = getelementptr inbounds %struct.jpeg_component_info, ptr %99, i32 0, i32 3
  %101 = load i32, ptr %100, align 4
  store i32 %101, ptr %9, align 4
  br label %117

102:                                              ; preds = %69
  %103 = load ptr, ptr %12, align 8
  %104 = getelementptr inbounds %struct.jpeg_component_info, ptr %103, i32 0, i32 8
  %105 = load i32, ptr %104, align 8
  %106 = load ptr, ptr %12, align 8
  %107 = getelementptr inbounds %struct.jpeg_component_info, ptr %106, i32 0, i32 3
  %108 = load i32, ptr %107, align 4
  %109 = urem i32 %105, %108
  store i32 %109, ptr %9, align 4
  %110 = load i32, ptr %9, align 4
  %111 = icmp eq i32 %110, 0
  br i1 %111, label %112, label %116

112:                                              ; preds = %102
  %113 = load ptr, ptr %12, align 8
  %114 = getelementptr inbounds %struct.jpeg_component_info, ptr %113, i32 0, i32 3
  %115 = load i32, ptr %114, align 4
  store i32 %115, ptr %9, align 4
  br label %116

116:                                              ; preds = %112, %102
  br label %117

117:                                              ; preds = %116, %98
  store i32 0, ptr %10, align 4
  br label %118

118:                                              ; preds = %142, %117
  %119 = load i32, ptr %10, align 4
  %120 = load i32, ptr %9, align 4
  %121 = icmp slt i32 %119, %120
  br i1 %121, label %122, label %145

122:                                              ; preds = %118
  %123 = load ptr, ptr %5, align 8
  %124 = load i32, ptr %8, align 4
  %125 = sext i32 %124 to i64
  %126 = getelementptr inbounds ptr, ptr %123, i64 %125
  %127 = load ptr, ptr %126, align 8
  %128 = load i32, ptr %10, align 4
  %129 = sext i32 %128 to i64
  %130 = getelementptr inbounds ptr, ptr %127, i64 %129
  %131 = load ptr, ptr %130, align 8
  %132 = load ptr, ptr %11, align 8
  %133 = load i32, ptr %10, align 4
  %134 = sext i32 %133 to i64
  %135 = getelementptr inbounds ptr, ptr %132, i64 %134
  %136 = load ptr, ptr %135, align 8
  %137 = load ptr, ptr %12, align 8
  %138 = getelementptr inbounds %struct.jpeg_component_info, ptr %137, i32 0, i32 7
  %139 = load i32, ptr %138, align 4
  %140 = zext i32 %139 to i64
  %141 = mul i64 %140, 1
  call void @llvm.memcpy.p0.p0.i64(ptr align 1 %131, ptr align 1 %136, i64 %141, i1 false)
  br label %142

142:                                              ; preds = %122
  %143 = load i32, ptr %10, align 4
  %144 = add nsw i32 %143, 1
  store i32 %144, ptr %10, align 4
  br label %118, !llvm.loop !9

145:                                              ; preds = %118
  br label %146

146:                                              ; preds = %145
  %147 = load i32, ptr %8, align 4
  %148 = add nsw i32 %147, 1
  store i32 %148, ptr %8, align 4
  %149 = load ptr, ptr %12, align 8
  %150 = getelementptr inbounds %struct.jpeg_component_info, ptr %149, i32 1
  store ptr %150, ptr %12, align 8
  br label %63, !llvm.loop !10

151:                                              ; preds = %63
  %152 = load ptr, ptr %4, align 8
  %153 = getelementptr inbounds %struct.jpeg_decompress_struct, ptr %152, i32 0, i32 38
  %154 = load i32, ptr %153, align 8
  %155 = add i32 %154, 1
  store i32 %155, ptr %153, align 8
  %156 = load ptr, ptr %4, align 8
  %157 = getelementptr inbounds %struct.jpeg_decompress_struct, ptr %156, i32 0, i32 64
  %158 = load i32, ptr %157, align 4
  %159 = icmp ult i32 %155, %158
  br i1 %159, label %160, label %161

160:                                              ; preds = %151
  store i32 3, ptr %3, align 4
  br label %162

161:                                              ; preds = %151
  store i32 4, ptr %3, align 4
  br label %162

162:                                              ; preds = %161, %160, %57
  %163 = load i32, ptr %3, align 4
  ret i32 %163
}