; Function Attrs: nounwind uwtable
define internal range(i32 0, 5) i32 @output_data(ptr noundef %0, ptr noundef readonly captures(none) %1) #0 {
  %3 = getelementptr inbounds nuw i8, ptr %0, i64 560
  %4 = load ptr, ptr %3, align 8
  %5 = getelementptr inbounds nuw i8, ptr %0, i64 420
  %6 = load i32, ptr %5, align 4
  %7 = add i32 %6, -1
  %8 = getelementptr inbounds nuw i8, ptr %0, i64 172
  %9 = getelementptr inbounds nuw i8, ptr %0, i64 180
  %10 = getelementptr inbounds nuw i8, ptr %0, i64 176
  %11 = getelementptr inbounds nuw i8, ptr %0, i64 184
  %12 = getelementptr inbounds nuw i8, ptr %0, i64 576
  br label %13

13:                                               ; preds = %.critedge, %2
  %14 = load i32, ptr %8, align 4
  %15 = load i32, ptr %9, align 4
  %16 = icmp slt i32 %14, %15
  br i1 %16, label %.critedge, label %17

17:                                               ; preds = %13
  %18 = icmp eq i32 %14, %15
  br i1 %18, label %19, label %.critedge2

19:                                               ; preds = %17
  %20 = load i32, ptr %10, align 8
  %21 = load i32, ptr %11, align 8
  %.not = icmp ugt i32 %20, %21
  br i1 %.not, label %.critedge2, label %.critedge

.critedge:                                        ; preds = %13, %19
  %22 = load ptr, ptr %12, align 8
  %23 = load ptr, ptr %22, align 8
  %24 = tail call i32 %23(ptr noundef nonnull %0) #5
  %25 = icmp eq i32 %24, 0
  br i1 %25, label %.loopexit, label %13, !llvm.loop !8

.critedge2:                                       ; preds = %17, %19
  %26 = getelementptr inbounds nuw i8, ptr %0, i64 56
  %27 = load i32, ptr %26, align 8
  %28 = icmp sgt i32 %27, 0
  br i1 %28, label %.lr.ph52, label %._crit_edge53

.lr.ph52:                                         ; preds = %.critedge2
  %29 = getelementptr inbounds nuw i8, ptr %0, i64 304
  %30 = load ptr, ptr %29, align 8
  %31 = getelementptr inbounds nuw i8, ptr %0, i64 8
  %32 = getelementptr inbounds nuw i8, ptr %4, i64 248
  br label %33

33:                                               ; preds = %.lr.ph52, %._crit_edge
  %indvars.iv55 = phi i64 [ 0, %.lr.ph52 ], [ %indvars.iv.next56, %._crit_edge ]
  %.051 = phi ptr [ %30, %.lr.ph52 ], [ %66, %._crit_edge ]
  %34 = load ptr, ptr %31, align 8
  %35 = getelementptr inbounds nuw i8, ptr %34, i64 56
  %36 = load ptr, ptr %35, align 8
  %37 = getelementptr inbounds nuw [10 x ptr], ptr %32, i64 0, i64 %indvars.iv55
  %38 = load ptr, ptr %37, align 8
  %39 = load i32, ptr %11, align 8
  %40 = getelementptr inbounds nuw i8, ptr %.051, i64 12
  %41 = load i32, ptr %40, align 4
  %42 = mul i32 %41, %39
  %43 = tail call ptr %36(ptr noundef nonnull %0, ptr noundef %38, i32 noundef %42, i32 noundef %41, i32 noundef 0) #5
  %44 = load i32, ptr %11, align 8
  %45 = icmp ult i32 %44, %7
  br i1 %45, label %46, label %48

46:                                               ; preds = %33
  %47 = load i32, ptr %40, align 4
  br label %54

48:                                               ; preds = %33
  %49 = getelementptr inbounds nuw i8, ptr %.051, i64 32
  %50 = load i32, ptr %49, align 8
  %51 = load i32, ptr %40, align 4
  %52 = urem i32 %50, %51
  %53 = icmp eq i32 %52, 0
  %spec.select = select i1 %53, i32 %51, i32 %52
  br label %54

54:                                               ; preds = %48, %46
  %.044 = phi i32 [ %47, %46 ], [ %spec.select, %48 ]
  %55 = icmp sgt i32 %.044, 0
  br i1 %55, label %.lr.ph, label %._crit_edge

.lr.ph:                                           ; preds = %54
  %56 = getelementptr inbounds nuw ptr, ptr %1, i64 %indvars.iv55
  %57 = getelementptr inbounds nuw i8, ptr %.051, i64 28
  %wide.trip.count = zext nneg i32 %.044 to i64
  br label %58

58:                                               ; preds = %.lr.ph, %58
  %indvars.iv = phi i64 [ 0, %.lr.ph ], [ %indvars.iv.next, %58 ]
  %59 = load ptr, ptr %56, align 8
  %60 = getelementptr inbounds nuw ptr, ptr %59, i64 %indvars.iv
  %61 = load ptr, ptr %60, align 8
  %62 = getelementptr inbounds nuw ptr, ptr %43, i64 %indvars.iv
  %63 = load ptr, ptr %62, align 8
  %64 = load i32, ptr %57, align 4
  %65 = zext i32 %64 to i64
  tail call void @llvm.memcpy.p0.p0.i64(ptr align 1 %61, ptr align 1 %63, i64 %65, i1 false)
  %indvars.iv.next = add nuw nsw i64 %indvars.iv, 1
  %exitcond.not = icmp eq i64 %indvars.iv.next, %wide.trip.count
  br i1 %exitcond.not, label %._crit_edge, label %58, !llvm.loop !9

._crit_edge:                                      ; preds = %58, %54
  %indvars.iv.next56 = add nuw nsw i64 %indvars.iv55, 1
  %66 = getelementptr inbounds nuw i8, ptr %.051, i64 96
  %67 = load i32, ptr %26, align 8
  %68 = sext i32 %67 to i64
  %69 = icmp slt i64 %indvars.iv.next56, %68
  br i1 %69, label %33, label %._crit_edge53, !llvm.loop !10

._crit_edge53:                                    ; preds = %._crit_edge, %.critedge2
  %70 = load i32, ptr %11, align 8
  %71 = add i32 %70, 1
  store i32 %71, ptr %11, align 8
  %72 = load i32, ptr %5, align 4
  %73 = icmp ult i32 %71, %72
  %. = select i1 %73, i32 3, i32 4
  br label %.loopexit

.loopexit:                                        ; preds = %.critedge, %._crit_edge53
  %.042 = phi i32 [ %., %._crit_edge53 ], [ 0, %.critedge ]
  ret i32 %.042
}